target datalayout = "e-m:e-p270:32:32-p271:32:32-p272:64:64-i64:64-i128:128-f80:128-n8:16:32:64-S128"
target triple = "x86_64-pc-linux-gnu"

%struct._zend_phpdbg_globals = type { [11 x %struct._zend_array], %struct._zend_array, %struct._zend_array, ptr, ptr, %struct.phpdbg_frame_t, i32, ptr, %struct.phpdbg_lexer_data, ptr, %struct.sigaction, i32, i64, %struct.phpdbg_btree, %struct.phpdbg_btree, %struct._zend_array, %struct._zend_array, %struct._zend_array, %struct._zend_array, ptr, ptr, i8, ptr, ptr, ptr, i64, ptr, %struct._zval_struct, i32, i32, i8, i8, ptr, ptr, ptr, %struct._zend_array, ptr, ptr, ptr, [3 x %struct.anon.8], ptr, %struct.anon.9, i64, [2 x ptr], [3 x ptr], ptr, i8, ptr, ptr, [500 x i8], i32, %struct.phpdbg_signal_safe_mem, ptr, i64, ptr, i64 }
%struct.phpdbg_frame_t = type { i32, ptr, ptr }
%struct.phpdbg_lexer_data = type { i32, ptr, ptr, ptr, ptr, i32 }
%struct.sigaction = type { %union.anon.2, %struct.__sigset_t, i32, ptr }
%union.anon.2 = type { ptr }
%struct.__sigset_t = type { [16 x i64] }
%struct.phpdbg_btree = type { i64, i64, i8, ptr }
%struct._zval_struct = type { %union._zend_value, %union.anon.4, %union.anon.7 }
%union._zend_value = type { i64 }
%union.anon.4 = type { i32 }
%union.anon.7 = type { i32 }
%struct._zend_array = type { %struct._zend_refcounted_h, %union.anon.0, i32, %union.anon.1, i32, i32, i32, i32, i64, ptr }
%struct._zend_refcounted_h = type { i32, %union.anon }
%union.anon = type { i32 }
%union.anon.0 = type { i32 }
%union.anon.1 = type { ptr }
%struct.anon.8 = type { i32 }
%struct.anon.9 = type { i8, i32, i32, ptr, i32 }
%struct.phpdbg_signal_safe_mem = type { ptr, i8, ptr, ptr }
%struct._zend_executor_globals = type { %struct._zval_struct, %struct._zval_struct, [32 x ptr], ptr, ptr, %struct._zend_array, %struct._zend_array, ptr, i32, i32, ptr, ptr, ptr, ptr, ptr, ptr, i64, ptr, ptr, i32, i32, i64, i32, i32, i32, i8, i8, %struct.zend_atomic_bool_s, %struct.zend_atomic_bool_s, ptr, i64, ptr, ptr, %struct._zend_array, %struct._zend_array, i32, i8, %struct._zval_struct, %struct._zval_struct, %struct._zend_stack, %struct._zend_stack, %struct._zend_stack, ptr, i32, i32, i64, ptr, ptr, ptr, %struct._zend_objects_store, ptr, ptr, ptr, [3 x %struct._zend_op], ptr, i8, i8, i64, i32, i32, ptr, [16 x %struct._HashTableIterator], ptr, %union._zend_function, %struct._zend_op, %struct._zend_array, i64, %struct.zend_get_gc_buffer, ptr, ptr, ptr, i64, i8, i32, ptr, ptr, i64, %struct._zend_call_stack, i64, i64, [6 x ptr] }
%struct.zend_atomic_bool_s = type { i8 }
%struct._zend_stack = type { i32, i32, i32, ptr }
%struct._zend_objects_store = type { ptr, i32, i32, i32 }
%struct._HashTableIterator = type { ptr, i32, i32 }
%union._zend_function = type { %struct._zend_op_array }
%struct._zend_op_array = type { i8, [3 x i8], i32, ptr, ptr, ptr, i32, i32, ptr, ptr, ptr, ptr, i32, i32, i32, i32, ptr, ptr, ptr, ptr, ptr, i32, i32, ptr, ptr, ptr, i32, i32, i32, i32, ptr, ptr, [6 x ptr] }
%struct._zend_op = type { ptr, %union._znode_op, %union._znode_op, %union._znode_op, i32, i32, i8, i8, i8, i8 }
%union._znode_op = type { i32 }
%struct.zend_get_gc_buffer = type { ptr, ptr, ptr }
%struct._zend_call_stack = type { ptr, i64 }
%struct._zend_execute_data = type { ptr, ptr, ptr, ptr, %struct._zval_struct, ptr, ptr, ptr, ptr }

@phpdbg_globals = external global %struct._zend_phpdbg_globals, align 8
@executor_globals = external global %struct._zend_executor_globals, align 8
@.str.85 = private unnamed_addr constant [14 x i8] c"Not executing\00", align 1
@.str.86 = private unnamed_addr constant [35 x i8] c"Already at the end of the function\00", align 1

; Function Attrs: nounwind uwtable
define internal void @phpdbg_seek_to_end() #0 {
  %1 = alloca ptr, align 8
  %2 = alloca i64, align 8
  %3 = alloca ptr, align 8
  %4 = alloca %struct._zval_struct, align 8
  %5 = alloca ptr, align 8
  %6 = alloca ptr, align 8
  %7 = alloca ptr, align 8
  %8 = alloca ptr, align 8
  %9 = alloca ptr, align 8
  %10 = load ptr, ptr getelementptr inbounds (%struct._zend_executor_globals, ptr @executor_globals, i32 0, i32 17), align 8
  store ptr %10, ptr %6, align 8
  br label %11

11:                                               ; preds = %26, %0
  %12 = load ptr, ptr %6, align 8
  %13 = getelementptr inbounds %struct._zend_execute_data, ptr %12, i32 0, i32 3
  %14 = load ptr, ptr %13, align 8
  %15 = icmp ne ptr %14, null
  br i1 %15, label %16, label %24

16:                                               ; preds = %11
  %17 = load ptr, ptr %6, align 8
  %18 = getelementptr inbounds %struct._zend_execute_data, ptr %17, i32 0, i32 3
  %19 = load ptr, ptr %18, align 8
  %20 = load i8, ptr %19, align 8
  %21 = zext i8 %20 to i32
  %22 = icmp ne i32 %21, 1
  %23 = xor i1 %22, true
  br label %24

24:                                               ; preds = %16, %11
  %25 = phi i1 [ true, %11 ], [ %23, %16 ]
  br i1 %25, label %26, label %32

26:                                               ; preds = %24
  %27 = load ptr, ptr %6, align 8
  %28 = getelementptr inbounds %struct._zend_execute_data, ptr %27, i32 0, i32 5
  %29 = load ptr, ptr %28, align 8
  store ptr %29, ptr %6, align 8
  %30 = load ptr, ptr %6, align 8
  %31 = icmp ne ptr %30, null
  call void @llvm.assume(i1 %31)
  br label %11

32:                                               ; preds = %24
  %33 = load ptr, ptr %6, align 8
  store ptr %33, ptr %7, align 8
  %34 = load ptr, ptr %7, align 8
  %35 = getelementptr inbounds %struct._zend_execute_data, ptr %34, i32 0, i32 3
  %36 = load ptr, ptr %35, align 8
  store ptr %36, ptr %8, align 8
  %37 = load ptr, ptr %8, align 8
  %38 = getelementptr inbounds %struct._zend_op_array, ptr %37, i32 0, i32 16
  %39 = load ptr, ptr %38, align 8
  store ptr %39, ptr %9, align 8
  %40 = load ptr, ptr %7, align 8
  store ptr %40, ptr getelementptr inbounds (%struct._zend_phpdbg_globals, ptr @phpdbg_globals, i32 0, i32 3), align 8
  br label %41

41:                                               ; preds = %59, %32
  %42 = load ptr, ptr %9, align 8
  %43 = getelementptr inbounds %struct._zend_op, ptr %42, i32 0, i32 6
  %44 = load i8, ptr %43, align 4
  %45 = zext i8 %44 to i32
  switch i32 %45, label %58 [
    i32 62, label %46
    i32 163, label %46
    i32 161, label %46
    i32 79, label %46
    i32 160, label %46
    i32 166, label %46
  ]

46:                                               ; preds = %41, %41, %41, %41, %41, %41
  %47 = load ptr, ptr %9, align 8
  %48 = ptrtoint ptr %47 to i64
  %49 = load ptr, ptr %9, align 8
  store ptr getelementptr inbounds (%struct._zend_phpdbg_globals, ptr @phpdbg_globals, i32 0, i32 2), ptr %1, align 8
  store i64 %48, ptr %2, align 8
  store ptr %49, ptr %3, align 8
  %50 = load ptr, ptr %3, align 8
  store ptr %50, ptr %4, align 8
  %51 = getelementptr inbounds %struct._zval_struct, ptr %4, i32 0, i32 1
  store i32 13, ptr %51, align 8
  %52 = load ptr, ptr %1, align 8
  %53 = load i64, ptr %2, align 8
  %54 = call ptr @zend_hash_index_update(ptr noundef %52, i64 noundef %53, ptr noundef %4) #15
  store ptr %54, ptr %5, align 8
  %55 = load ptr, ptr %5, align 8
  %56 = load ptr, ptr %55, align 8
  %57 = icmp ne ptr %56, null
  call void @llvm.assume(i1 %57)
  br label %58

58:                                               ; preds = %46, %41
  br label %59

59:                                               ; preds = %58
  %60 = load ptr, ptr %9, align 8
  %61 = getelementptr inbounds %struct._zend_op, ptr %60, i32 1
  store ptr %61, ptr %9, align 8
  %62 = load ptr, ptr %8, align 8
  %63 = getelementptr inbounds %struct._zend_op_array, ptr %62, i32 0, i32 16
  %64 = load ptr, ptr %63, align 8
  %65 = load ptr, ptr %8, align 8
  %66 = getelementptr inbounds %struct._zend_op_array, ptr %65, i32 0, i32 15
  %67 = load i32, ptr %66, align 4
  %68 = zext i32 %67 to i64
  %69 = getelementptr inbounds %struct._zend_op, ptr %64, i64 %68
  %70 = icmp ult ptr %61, %69
  br i1 %70, label %41, label %71

71:                                               ; preds = %59
  ret void
}

; Function Attrs: nounwind uwtable
define hidden i32 @phpdbg_do_leave(ptr noundef %0) #0 {
  %2 = alloca ptr, align 8
  %3 = alloca i64, align 8
  %4 = alloca ptr, align 8
  %5 = alloca i32, align 4
  %6 = alloca ptr, align 8
  store ptr %0, ptr %6, align 8
  %7 = load i8, ptr getelementptr inbounds (%struct._zend_phpdbg_globals, ptr @phpdbg_globals, i32 0, i32 30), align 8
  %8 = trunc i8 %7 to i1
  br i1 %8, label %12, label %9

9:                                                ; preds = %1
  %10 = load i32, ptr getelementptr inbounds (%struct._zend_phpdbg_globals, ptr @phpdbg_globals, i32 0, i32 39, i64 1), align 4
  %11 = call i32 (i32, i32, ptr, ...) @phpdbg_print(i32 noundef 1, i32 noundef %10, ptr noundef @.str.85)
  store i32 0, ptr %5, align 4
  br label %50

12:                                               ; preds = %1
  call void @phpdbg_seek_to_end()
  %13 = load ptr, ptr getelementptr inbounds (%struct._zend_executor_globals, ptr @executor_globals, i32 0, i32 17), align 8
  store ptr %13, ptr %4, align 8
  br label %14

14:                                               ; preds = %29, %12
  %15 = load ptr, ptr %4, align 8
  %16 = getelementptr inbounds %struct._zend_execute_data, ptr %15, i32 0, i32 3
  %17 = load ptr, ptr %16, align 8
  %18 = icmp ne ptr %17, null
  br i1 %18, label %19, label %27

19:                                               ; preds = %14
  %20 = load ptr, ptr %4, align 8
  %21 = getelementptr inbounds %struct._zend_execute_data, ptr %20, i32 0, i32 3
  %22 = load ptr, ptr %21, align 8
  %23 = load i8, ptr %22, align 8
  %24 = zext i8 %23 to i32
  %25 = icmp ne i32 %24, 1
  %26 = xor i1 %25, true
  br label %27

27:                                               ; preds = %19, %14
  %28 = phi i1 [ true, %14 ], [ %26, %19 ]
  br i1 %28, label %29, label %35

29:                                               ; preds = %27
  %30 = load ptr, ptr %4, align 8
  %31 = getelementptr inbounds %struct._zend_execute_data, ptr %30, i32 0, i32 5
  %32 = load ptr, ptr %31, align 8
  store ptr %32, ptr %4, align 8
  %33 = load ptr, ptr %4, align 8
  %34 = icmp ne ptr %33, null
  call void @llvm.assume(i1 %34)
  br label %14

35:                                               ; preds = %27
  %36 = load ptr, ptr %4, align 8
  %37 = getelementptr inbounds %struct._zend_execute_data, ptr %36, i32 0, i32 0
  %38 = load ptr, ptr %37, align 8
  %39 = ptrtoint ptr %38 to i64
  store ptr getelementptr inbounds (%struct._zend_phpdbg_globals, ptr @phpdbg_globals, i32 0, i32 2), ptr %2, align 8
  store i64 %39, ptr %3, align 8
  %40 = load ptr, ptr %2, align 8
  %41 = load i64, ptr %3, align 8
  %42 = call ptr @zend_hash_index_find(ptr noundef %40, i64 noundef %41) #15
  %43 = icmp ne ptr %42, null
  br i1 %43, label %44, label %47

44:                                               ; preds = %35
  call void @zend_hash_clean(ptr noundef getelementptr inbounds (%struct._zend_phpdbg_globals, ptr @phpdbg_globals, i32 0, i32 2))
  %45 = load i32, ptr getelementptr inbounds (%struct._zend_phpdbg_globals, ptr @phpdbg_globals, i32 0, i32 39, i64 1), align 4
  %46 = call i32 (i32, i32, ptr, ...) @phpdbg_print(i32 noundef 2, i32 noundef %45, ptr noundef @.str.86)
  store i32 0, ptr %5, align 4
  br label %50

47:                                               ; preds = %35
  %48 = load i64, ptr getelementptr inbounds (%struct._zend_phpdbg_globals, ptr @phpdbg_globals, i32 0, i32 53), align 8
  %49 = or i64 %48, 4194304
  store i64 %49, ptr getelementptr inbounds (%struct._zend_phpdbg_globals, ptr @phpdbg_globals, i32 0, i32 53), align 8
  store i32 5, ptr %5, align 4
  br label %50

50:                                               ; preds = %47, %44, %9
  %51 = load i32, ptr %5, align 4
  ret i32 %51
}