; Function Attrs: nounwind uwtable
define hidden noundef i32 @phpdbg_do_leave(ptr nocapture readnone %0) #0 {
  %2 = alloca %struct._zval_struct, align 8
  %3 = load i8, ptr getelementptr inbounds (%struct._zend_phpdbg_globals, ptr @phpdbg_globals, i64 0, i32 30), align 8
  %4 = and i8 %3, 1
  %.not = icmp eq i8 %4, 0
  br i1 %.not, label %5, label %8

5:                                                ; preds = %1
  %6 = load i32, ptr getelementptr inbounds (%struct._zend_phpdbg_globals, ptr @phpdbg_globals, i64 0, i32 39, i64 1), align 4
  %7 = tail call i32 (i32, i32, ptr, ...) @phpdbg_print(i32 noundef 1, i32 noundef %6, ptr noundef nonnull @.str.85) #24
  br label %51

8:                                                ; preds = %1
  call void @llvm.lifetime.start.p0(i64 16, ptr nonnull %2)
  br label %9

9:                                                ; preds = %.critedge.i, %8
  %.017.in.i = phi ptr [ getelementptr inbounds (%struct._zend_executor_globals, ptr @executor_globals, i64 0, i32 17), %8 ], [ %14, %.critedge.i ]
  %.017.i = load ptr, ptr %.017.in.i, align 8
  %10 = getelementptr inbounds i8, ptr %.017.i, i64 24
  %11 = load ptr, ptr %10, align 8
  %.not.i = icmp eq ptr %11, null
  br i1 %.not.i, label %.critedge.i, label %12

12:                                               ; preds = %9
  %13 = load i8, ptr %11, align 8
  %.not20.i = icmp eq i8 %13, 1
  br i1 %.not20.i, label %.critedge.i, label %15

.critedge.i:                                      ; preds = %12, %9
  %14 = getelementptr inbounds i8, ptr %.017.i, i64 48
  br label %9

15:                                               ; preds = %12
  %16 = getelementptr inbounds i8, ptr %11, i64 88
  %17 = load ptr, ptr %16, align 8
  store ptr %.017.i, ptr getelementptr inbounds (%struct._zend_phpdbg_globals, ptr @phpdbg_globals, i64 0, i32 3), align 8
  %18 = getelementptr inbounds i8, ptr %2, i64 8
  %19 = getelementptr inbounds i8, ptr %11, i64 84
  br label %20

20:                                               ; preds = %28, %15
  %.0.i = phi ptr [ %17, %15 ], [ %29, %28 ]
  %21 = getelementptr inbounds i8, ptr %.0.i, i64 28
  %22 = load i8, ptr %21, align 4
  switch i8 %22, label %28 [
    i8 62, label %23
    i8 -93, label %23
    i8 -95, label %23
    i8 79, label %23
    i8 -96, label %23
    i8 -90, label %23
  ]

23:                                               ; preds = %20, %20, %20, %20, %20, %20
  %24 = ptrtoint ptr %.0.i to i64
  store ptr %.0.i, ptr %2, align 8
  store i32 13, ptr %18, align 8
  %25 = call ptr @zend_hash_index_update(ptr noundef nonnull getelementptr inbounds (%struct._zend_phpdbg_globals, ptr @phpdbg_globals, i64 0, i32 2), i64 noundef %24, ptr noundef nonnull %2) #24
  %26 = load ptr, ptr %25, align 8
  %27 = icmp ne ptr %26, null
  call void @llvm.assume(i1 %27)
  br label %28

28:                                               ; preds = %23, %20
  %29 = getelementptr inbounds i8, ptr %.0.i, i64 32
  %30 = load ptr, ptr %16, align 8
  %31 = load i32, ptr %19, align 4
  %32 = zext i32 %31 to i64
  %33 = getelementptr inbounds %struct._zend_op, ptr %30, i64 %32
  %34 = icmp ult ptr %29, %33
  br i1 %34, label %20, label %phpdbg_seek_to_end.exit

phpdbg_seek_to_end.exit:                          ; preds = %28
  call void @llvm.lifetime.end.p0(i64 16, ptr nonnull %2)
  br label %35

35:                                               ; preds = %.critedge, %phpdbg_seek_to_end.exit
  %.0.in = phi ptr [ getelementptr inbounds (%struct._zend_executor_globals, ptr @executor_globals, i64 0, i32 17), %phpdbg_seek_to_end.exit ], [ %40, %.critedge ]
  %.0 = load ptr, ptr %.0.in, align 8
  %36 = getelementptr inbounds i8, ptr %.0, i64 24
  %37 = load ptr, ptr %36, align 8
  %.not9 = icmp eq ptr %37, null
  br i1 %.not9, label %.critedge, label %38

38:                                               ; preds = %35
  %39 = load i8, ptr %37, align 8
  %.not10 = icmp eq i8 %39, 1
  br i1 %.not10, label %.critedge, label %41

.critedge:                                        ; preds = %35, %38
  %40 = getelementptr inbounds i8, ptr %.0, i64 48
  br label %35

41:                                               ; preds = %38
  %42 = load ptr, ptr %.0, align 8
  %43 = ptrtoint ptr %42 to i64
  %44 = call ptr @zend_hash_index_find(ptr noundef nonnull getelementptr inbounds (%struct._zend_phpdbg_globals, ptr @phpdbg_globals, i64 0, i32 2), i64 noundef %43) #24
  %.not11 = icmp eq ptr %44, null
  br i1 %.not11, label %48, label %45

45:                                               ; preds = %41
  call void @zend_hash_clean(ptr noundef nonnull getelementptr inbounds (%struct._zend_phpdbg_globals, ptr @phpdbg_globals, i64 0, i32 2)) #24
  %46 = load i32, ptr getelementptr inbounds (%struct._zend_phpdbg_globals, ptr @phpdbg_globals, i64 0, i32 39, i64 1), align 4
  %47 = call i32 (i32, i32, ptr, ...) @phpdbg_print(i32 noundef 2, i32 noundef %46, ptr noundef nonnull @.str.86) #24
  br label %51

48:                                               ; preds = %41
  %49 = load i64, ptr getelementptr inbounds (%struct._zend_phpdbg_globals, ptr @phpdbg_globals, i64 0, i32 53), align 8
  %50 = or i64 %49, 4194304
  store i64 %50, ptr getelementptr inbounds (%struct._zend_phpdbg_globals, ptr @phpdbg_globals, i64 0, i32 53), align 8
  br label %51

51:                                               ; preds = %48, %45, %5
  %.07 = phi i32 [ 0, %45 ], [ 5, %48 ], [ 0, %5 ]
  ret i32 %.07
}